target datalayout = "e-m:e-p270:32:32-p271:32:32-p272:64:64-i64:64-i128:128-f80:128-n8:16:32:64-S128"
target triple = "x86_64-pc-linux-gnu"

; Function Attrs: nounwind uwtable
define internal i32 @next_insert(ptr noundef %0, i32 noundef %1, i1 noundef zeroext %2, i1 noundef zeroext %3) #0 {
  %5 = alloca i32, align 4
  %6 = alloca ptr, align 8
  %7 = alloca i32, align 4
  %8 = alloca i8, align 1
  %9 = alloca i8, align 1
  %10 = alloca i8, align 1
  %11 = alloca i32, align 4
  %12 = alloca i32, align 4
  %13 = alloca i32, align 4
  store ptr %0, ptr %6, align 8
  store i32 %1, ptr %7, align 4
  %14 = zext i1 %2 to i8
  store i8 %14, ptr %8, align 1
  %15 = zext i1 %3 to i8
  store i8 %15, ptr %9, align 1
  call void @llvm.lifetime.start.p0(i64 1, ptr %10) #10
  store i8 0, ptr %10, align 1
  call void @llvm.lifetime.start.p0(i64 4, ptr %11) #10
  %16 = load i32, ptr %7, align 4
  store i32 %16, ptr %11, align 4
  br label %17

17:                                               ; preds = %161, %4
  %18 = load ptr, ptr %6, align 8
  %19 = load i32, ptr %11, align 4
  %20 = sext i32 %19 to i64
  %21 = getelementptr inbounds i8, ptr %18, i64 %20
  %22 = load i8, ptr %21, align 1
  %23 = sext i8 %22 to i32
  %24 = icmp ne i32 %23, 0
  br i1 %24, label %25, label %164

25:                                               ; preds = %17
  %26 = load i8, ptr %10, align 1, !range !7, !noundef !8
  %27 = trunc i8 %26 to i1
  br i1 %27, label %28, label %42

28:                                               ; preds = %25
  %29 = load i8, ptr %9, align 1, !range !7, !noundef !8
  %30 = trunc i8 %29 to i1
  br i1 %30, label %42, label %31

31:                                               ; preds = %28
  %32 = load ptr, ptr %6, align 8
  %33 = load i32, ptr %11, align 4
  %34 = sext i32 %33 to i64
  %35 = getelementptr inbounds i8, ptr %32, i64 %34
  %36 = load i8, ptr %35, align 1
  %37 = sext i8 %36 to i32
  %38 = icmp eq i32 %37, 92
  br i1 %38, label %39, label %42

39:                                               ; preds = %31
  %40 = load i32, ptr %11, align 4
  %41 = add i32 %40, 1
  store i32 %41, ptr %11, align 4
  br label %160

42:                                               ; preds = %31, %28, %25
  %43 = load ptr, ptr %6, align 8
  %44 = load i32, ptr %11, align 4
  %45 = sext i32 %44 to i64
  %46 = getelementptr inbounds i8, ptr %43, i64 %45
  %47 = load i8, ptr %46, align 1
  %48 = sext i8 %47 to i32
  %49 = icmp eq i32 %48, 39
  br i1 %49, label %50, label %56

50:                                               ; preds = %42
  %51 = load i8, ptr %10, align 1, !range !7, !noundef !8
  %52 = trunc i8 %51 to i1
  %53 = select i1 %52, i32 0, i32 1
  %54 = icmp ne i32 %53, 0
  %55 = zext i1 %54 to i8
  store i8 %55, ptr %10, align 1
  br label %159

56:                                               ; preds = %42
  %57 = load i8, ptr %10, align 1, !range !7, !noundef !8
  %58 = trunc i8 %57 to i1
  br i1 %58, label %158, label %59

59:                                               ; preds = %56
  %60 = load ptr, ptr %6, align 8
  %61 = load i32, ptr %11, align 4
  %62 = sext i32 %61 to i64
  %63 = getelementptr inbounds i8, ptr %60, i64 %62
  %64 = load i8, ptr %63, align 1
  %65 = sext i8 %64 to i32
  %66 = icmp eq i32 %65, 36
  br i1 %66, label %67, label %143

67:                                               ; preds = %59
  %68 = call ptr @__ctype_b_loc() #12
  %69 = load ptr, ptr %68, align 8
  %70 = load ptr, ptr %6, align 8
  %71 = load i32, ptr %11, align 4
  %72 = add i32 %71, 1
  %73 = sext i32 %72 to i64
  %74 = getelementptr inbounds i8, ptr %70, i64 %73
  %75 = load i8, ptr %74, align 1
  %76 = zext i8 %75 to i32
  %77 = sext i32 %76 to i64
  %78 = getelementptr inbounds i16, ptr %69, i64 %77
  %79 = load i16, ptr %78, align 2
  %80 = zext i16 %79 to i32
  %81 = and i32 %80, 2048
  %82 = icmp ne i32 %81, 0
  br i1 %82, label %83, label %143

83:                                               ; preds = %67
  call void @llvm.lifetime.start.p0(i64 4, ptr %12) #10
  %84 = load i32, ptr %11, align 4
  %85 = add i32 %84, 1
  store i32 %85, ptr %12, align 4
  br label %86

86:                                               ; preds = %102, %83
  %87 = call ptr @__ctype_b_loc() #12
  %88 = load ptr, ptr %87, align 8
  %89 = load ptr, ptr %6, align 8
  %90 = load i32, ptr %12, align 4
  %91 = sext i32 %90 to i64
  %92 = getelementptr inbounds i8, ptr %89, i64 %91
  %93 = load i8, ptr %92, align 1
  %94 = zext i8 %93 to i32
  %95 = sext i32 %94 to i64
  %96 = getelementptr inbounds i16, ptr %88, i64 %95
  %97 = load i16, ptr %96, align 2
  %98 = zext i16 %97 to i32
  %99 = and i32 %98, 2048
  %100 = icmp ne i32 %99, 0
  br i1 %100, label %101, label %105

101:                                              ; preds = %86
  br label %102

102:                                              ; preds = %101
  %103 = load i32, ptr %12, align 4
  %104 = add i32 %103, 1
  store i32 %104, ptr %12, align 4
  br label %86, !llvm.loop !32

105:                                              ; preds = %86
  %106 = call ptr @__ctype_b_loc() #12
  %107 = load ptr, ptr %106, align 8
  %108 = load ptr, ptr %6, align 8
  %109 = load i32, ptr %12, align 4
  %110 = sext i32 %109 to i64
  %111 = getelementptr inbounds i8, ptr %108, i64 %110
  %112 = load i8, ptr %111, align 1
  %113 = zext i8 %112 to i32
  %114 = sext i32 %113 to i64
  %115 = getelementptr inbounds i16, ptr %107, i64 %114
  %116 = load i16, ptr %115, align 2
  %117 = zext i16 %116 to i32
  %118 = and i32 %117, 1024
  %119 = icmp ne i32 %118, 0
  br i1 %119, label %139, label %120

120:                                              ; preds = %105
  %121 = load ptr, ptr %6, align 8
  %122 = load i32, ptr %12, align 4
  %123 = sext i32 %122 to i64
  %124 = getelementptr inbounds i8, ptr %121, i64 %123
  %125 = load i8, ptr %124, align 1
  %126 = zext i8 %125 to i32
  %127 = and i32 %126, -128
  %128 = icmp eq i32 %127, 0
  br i1 %128, label %129, label %139

129:                                              ; preds = %120
  %130 = load ptr, ptr %6, align 8
  %131 = load i32, ptr %12, align 4
  %132 = sext i32 %131 to i64
  %133 = getelementptr inbounds i8, ptr %130, i64 %132
  %134 = load i8, ptr %133, align 1
  %135 = sext i8 %134 to i32
  %136 = icmp ne i32 %135, 95
  br i1 %136, label %137, label %139

137:                                              ; preds = %129
  %138 = load i32, ptr %11, align 4
  store i32 %138, ptr %5, align 4
  store i32 1, ptr %13, align 4
  br label %140

139:                                              ; preds = %129, %120, %105
  store i32 0, ptr %13, align 4
  br label %140

140:                                              ; preds = %139, %137
  call void @llvm.lifetime.end.p0(i64 4, ptr %12) #10
  %141 = load i32, ptr %13, align 4
  switch i32 %141, label %165 [
    i32 0, label %142
  ]

142:                                              ; preds = %140
  br label %157

143:                                              ; preds = %67, %59
  %144 = load i8, ptr %8, align 1, !range !7, !noundef !8
  %145 = trunc i8 %144 to i1
  br i1 %145, label %146, label %156

146:                                              ; preds = %143
  %147 = load ptr, ptr %6, align 8
  %148 = load i32, ptr %11, align 4
  %149 = sext i32 %148 to i64
  %150 = getelementptr inbounds i8, ptr %147, i64 %149
  %151 = load i8, ptr %150, align 1
  %152 = sext i8 %151 to i32
  %153 = icmp eq i32 %152, 63
  br i1 %153, label %154, label %156

154:                                              ; preds = %146
  %155 = load i32, ptr %11, align 4
  store i32 %155, ptr %5, align 4
  store i32 1, ptr %13, align 4
  br label %165

156:                                              ; preds = %146, %143
  br label %157

157:                                              ; preds = %156, %142
  br label %158

158:                                              ; preds = %157, %56
  br label %159

159:                                              ; preds = %158, %50
  br label %160

160:                                              ; preds = %159, %39
  br label %161

161:                                              ; preds = %160
  %162 = load i32, ptr %11, align 4
  %163 = add i32 %162, 1
  store i32 %163, ptr %11, align 4
  br label %17, !llvm.loop !33

164:                                              ; preds = %17
  store i32 -1, ptr %5, align 4
  store i32 1, ptr %13, align 4
  br label %165

165:                                              ; preds = %164, %154, %140
  call void @llvm.lifetime.end.p0(i64 4, ptr %11) #10
  call void @llvm.lifetime.end.p0(i64 1, ptr %10) #10
  %166 = load i32, ptr %5, align 4
  ret i32 %166
}